target datalayout = "e-m:e-p270:32:32-p271:32:32-p272:64:64-i64:64-i128:128-f80:128-n8:16:32:64-S128"
target triple = "x86_64-pc-linux-gnu"

%struct._CandidateLocale = type { ptr }

@_TARGET_LOCALES = internal global [4 x %struct._CandidateLocale] [%struct._CandidateLocale { ptr @.str.149 }, %struct._CandidateLocale { ptr @.str.150 }, %struct._CandidateLocale { ptr @.str.151 }, %struct._CandidateLocale zeroinitializer], align 16

; Function Attrs: nounwind uwtable
define hidden i32 @_Py_IsLocaleCoercionTarget(ptr noundef %0) #1 {
  %2 = alloca i32, align 4
  %3 = alloca ptr, align 8
  %4 = alloca ptr, align 8
  %5 = alloca i32, align 4
  store ptr %0, ptr %3, align 8, !tbaa !180
  call void @llvm.lifetime.start.p0(i64 8, ptr %4) #14
  store ptr null, ptr %4, align 8, !tbaa !182
  store ptr @_TARGET_LOCALES, ptr %4, align 8, !tbaa !182
  br label %6

6:                                                ; preds = %20, %1
  %7 = load ptr, ptr %4, align 8, !tbaa !182
  %8 = getelementptr inbounds nuw %struct._CandidateLocale, ptr %7, i32 0, i32 0
  %9 = load ptr, ptr %8, align 8, !tbaa !184
  %10 = icmp ne ptr %9, null
  br i1 %10, label %11, label %23

11:                                               ; preds = %6
  %12 = load ptr, ptr %3, align 8, !tbaa !180
  %13 = load ptr, ptr %4, align 8, !tbaa !182
  %14 = getelementptr inbounds nuw %struct._CandidateLocale, ptr %13, i32 0, i32 0
  %15 = load ptr, ptr %14, align 8, !tbaa !184
  %16 = call i32 @strcmp(ptr noundef %12, ptr noundef %15) #15
  %17 = icmp eq i32 %16, 0
  br i1 %17, label %18, label %19

18:                                               ; preds = %11
  store i32 1, ptr %2, align 4
  store i32 1, ptr %5, align 4
  br label %24

19:                                               ; preds = %11
  br label %20

20:                                               ; preds = %19
  %21 = load ptr, ptr %4, align 8, !tbaa !182
  %22 = getelementptr %struct._CandidateLocale, ptr %21, i32 1
  store ptr %22, ptr %4, align 8, !tbaa !182
  br label %6, !llvm.loop !186

23:                                               ; preds = %6
  store i32 0, ptr %2, align 4
  store i32 1, ptr %5, align 4
  br label %24

24:                                               ; preds = %23, %18
  call void @llvm.lifetime.end.p0(i64 8, ptr %4) #14
  %25 = load i32, ptr %2, align 4
  ret i32 %25
}