; Function Attrs: nofree nounwind memory(read, inaccessiblemem: none) uwtable
define hidden range(i32 0, 2) i32 @_Py_IsLocaleCoercionTarget(ptr noundef readonly captures(none) %0) local_unnamed_addr #9 {
.lr.ph.preheader:
  br label %.lr.ph

1:                                                ; preds = %.lr.ph
  %2 = getelementptr i8, ptr %.07, i64 8
  %3 = load ptr, ptr %2, align 8, !tbaa !177
  %.not = icmp eq ptr %3, null
  br i1 %.not, label %._crit_edge, label %.lr.ph, !llvm.loop !179

.lr.ph:                                           ; preds = %.lr.ph.preheader, %1
  %4 = phi ptr [ %3, %1 ], [ @.str.149, %.lr.ph.preheader ]
  %.07 = phi ptr [ %2, %1 ], [ @_TARGET_LOCALES, %.lr.ph.preheader ]
  %5 = tail call i32 @strcmp(ptr noundef nonnull dereferenceable(1) %0, ptr noundef nonnull dereferenceable(1) %4) #24
  %6 = icmp eq i32 %5, 0
  br i1 %6, label %._crit_edge, label %1

._crit_edge:                                      ; preds = %.lr.ph, %1
  %.04.ph = phi i32 [ 1, %.lr.ph ], [ 0, %1 ]
  ret i32 %.04.ph
}